target datalayout = "e-m:e-p270:32:32-p271:32:32-p272:64:64-i64:64-i128:128-f80:128-n8:16:32:64-S128"
target triple = "x86_64-unknown-linux-gnu"

%"class.llvh::SMRange" = type { %"class.llvh::SMLoc", %"class.llvh::SMLoc" }
%"class.llvh::SMLoc" = type { ptr }
%"class.hermes::(anonymous namespace)::ESTreeJSONDumper" = type { ptr, ptr, i32, i32, i32, [4 x i8], %"class.llvh::StringMap", ptr }
%"class.llvh::StringMap" = type <{ %"class.llvh::StringMapImpl", %"class.llvh::MallocAllocator", [7 x i8] }>
%"class.llvh::StringMapImpl" = type { ptr, i32, i32, i32, i32 }
%"class.llvh::MallocAllocator" = type { i8 }
%"class.llvh::StringRef" = type { ptr, i64 }
%"class.hermes::ESTree::Node" = type { %"class.llvh::ilist_node", i32, i32, %"class.llvh::SMRange", %"class.llvh::SMLoc" }
%"class.llvh::ilist_node" = type { %"class.llvh::ilist_node_impl" }
%"class.llvh::ilist_node_impl" = type { %"class.llvh::ilist_node_base" }
%"class.llvh::ilist_node_base" = type { ptr, ptr }

@.str.246 = private unnamed_addr constant [5 x i8] c"type\00", align 1
@.str.297 = private unnamed_addr constant [4 x i8] c"raw\00", align 1

; Function Attrs: mustprogress nounwind uwtable
define linkonce_odr hidden noundef zeroext i1 @_ZNK4llvh5SMLoc7isValidEv(ptr noundef nonnull align 8 dereferenceable(8) %this) #0 comdat align 2 {
entry:
  %this.addr = alloca ptr, align 8
  store ptr %this, ptr %this.addr, align 8
  %this1 = load ptr, ptr %this.addr, align 8
  %Ptr = getelementptr inbounds %"class.llvh::SMLoc", ptr %this1, i32 0, i32 0
  %0 = load ptr, ptr %Ptr, align 8
  %cmp = icmp ne ptr %0, null
  ret i1 %cmp
}

; Function Attrs: mustprogress nounwind uwtable
define linkonce_odr hidden noundef ptr @_ZNK4llvh5SMLoc10getPointerEv(ptr noundef nonnull align 8 dereferenceable(8) %this) #0 comdat align 2 {
entry:
  %this.addr = alloca ptr, align 8
  store ptr %this, ptr %this.addr, align 8
  %this1 = load ptr, ptr %this.addr, align 8
  %Ptr = getelementptr inbounds %"class.llvh::SMLoc", ptr %this1, i32 0, i32 0
  %0 = load ptr, ptr %Ptr, align 8
  ret ptr %0
}

; Function Attrs: mustprogress nounwind uwtable
define linkonce_odr hidden noundef zeroext i1 @_ZNK4llvh7SMRange7isValidEv(ptr noundef nonnull align 8 dereferenceable(16) %this) #0 comdat align 2 {
entry:
  %this.addr = alloca ptr, align 8
  store ptr %this, ptr %this.addr, align 8
  %this1 = load ptr, ptr %this.addr, align 8
  %Start = getelementptr inbounds %"class.llvh::SMRange", ptr %this1, i32 0, i32 0
  %call = call noundef zeroext i1 @_ZNK4llvh5SMLoc7isValidEv(ptr noundef nonnull align 8 dereferenceable(8) %Start)
  ret i1 %call
}

; Function Attrs: mustprogress nounwind uwtable
define linkonce_odr hidden { ptr, ptr } @_ZNK6hermes6ESTree4Node14getSourceRangeEv(ptr noundef nonnull align 8 dereferenceable(48) %this) #0 comdat align 2 {
entry:
  %retval = alloca %"class.llvh::SMRange", align 8
  %this.addr = alloca ptr, align 8
  store ptr %this, ptr %this.addr, align 8
  %this1 = load ptr, ptr %this.addr, align 8
  %sourceRange_ = getelementptr inbounds %"class.hermes::ESTree::Node", ptr %this1, i32 0, i32 3
  call void @llvm.memcpy.p0.p0.i64(ptr align 8 %retval, ptr align 8 %sourceRange_, i64 16, i1 false)
  %0 = load { ptr, ptr }, ptr %retval, align 8
  ret { ptr, ptr } %0
}

; Function Attrs: mustprogress nounwind uwtable
define linkonce_odr hidden void @_ZN6hermes11JSONEmitter12emitKeyValueIN4llvh9StringRefEEEvS3_RKT_(ptr noundef nonnull align 8 dereferenceable(72) %this, ptr %key.coerce0, i64 %key.coerce1, ptr noundef nonnull align 8 dereferenceable(16) %val) #0 comdat align 2 {
entry:
  %key = alloca %"class.llvh::StringRef", align 8
  %this.addr = alloca ptr, align 8
  %val.addr = alloca ptr, align 8
  %agg.tmp = alloca %"class.llvh::StringRef", align 8
  %agg.tmp2 = alloca %"class.llvh::StringRef", align 8
  %0 = getelementptr inbounds { ptr, i64 }, ptr %key, i32 0, i32 0
  store ptr %key.coerce0, ptr %0, align 8
  %1 = getelementptr inbounds { ptr, i64 }, ptr %key, i32 0, i32 1
  store i64 %key.coerce1, ptr %1, align 8
  store ptr %this, ptr %this.addr, align 8
  store ptr %val, ptr %val.addr, align 8
  %this1 = load ptr, ptr %this.addr, align 8
  call void @llvm.memcpy.p0.p0.i64(ptr align 8 %agg.tmp, ptr align 8 %key, i64 16, i1 false)
  %2 = getelementptr inbounds { ptr, i64 }, ptr %agg.tmp, i32 0, i32 0
  %3 = load ptr, ptr %2, align 8
  %4 = getelementptr inbounds { ptr, i64 }, ptr %agg.tmp, i32 0, i32 1
  %5 = load i64, ptr %4, align 8
  call void @_ZN6hermes11JSONEmitter7emitKeyEN4llvh9StringRefE(ptr noundef nonnull align 8 dereferenceable(72) %this1, ptr %3, i64 %5)
  %6 = load ptr, ptr %val.addr, align 8
  call void @llvm.memcpy.p0.p0.i64(ptr align 8 %agg.tmp2, ptr align 8 %6, i64 16, i1 false)
  %7 = getelementptr inbounds { ptr, i64 }, ptr %agg.tmp2, i32 0, i32 0
  %8 = load ptr, ptr %7, align 8
  %9 = getelementptr inbounds { ptr, i64 }, ptr %agg.tmp2, i32 0, i32 1
  %10 = load i64, ptr %9, align 8
  call void @_ZN6hermes11JSONEmitter9emitValueEN4llvh9StringRefE(ptr noundef nonnull align 8 dereferenceable(72) %this1, ptr %8, i64 %10)
  ret void
}

; Function Attrs: mustprogress nounwind uwtable
define internal void @_ZN6hermes12_GLOBAL__N_116ESTreeJSONDumper5visitEPNS_6ESTree18NumericLiteralNodeEN4llvh9StringRefE(ptr noundef nonnull align 8 dereferenceable(72) %this, ptr noundef %node, ptr %type.coerce0, i64 %type.coerce1) #0 align 2 {
entry:
  %this.addr.i21 = alloca ptr, align 8
  %data.addr.i = alloca ptr, align 8
  %length.addr.i = alloca i64, align 8
  %this.addr.i11 = alloca ptr, align 8
  %Str.addr.i12 = alloca ptr, align 8
  %this.addr.i = alloca ptr, align 8
  %Str.addr.i = alloca ptr, align 8
  %type = alloca %"class.llvh::StringRef", align 8
  %this.addr = alloca ptr, align 8
  %node.addr = alloca ptr, align 8
  %agg.tmp = alloca %"class.llvh::StringRef", align 8
  %sr = alloca %"class.llvh::SMRange", align 8
  %agg.tmp5 = alloca %"class.llvh::StringRef", align 8
  %ref.tmp = alloca %"class.llvh::StringRef", align 8
  %0 = getelementptr inbounds { ptr, i64 }, ptr %type, i32 0, i32 0
  store ptr %type.coerce0, ptr %0, align 8
  %1 = getelementptr inbounds { ptr, i64 }, ptr %type, i32 0, i32 1
  store i64 %type.coerce1, ptr %1, align 8
  store ptr %this, ptr %this.addr, align 8
  store ptr %node, ptr %node.addr, align 8
  %this1 = load ptr, ptr %this.addr, align 8
  %json_ = getelementptr inbounds %"class.hermes::(anonymous namespace)::ESTreeJSONDumper", ptr %this1, i32 0, i32 0
  %2 = load ptr, ptr %json_, align 8
  call void @_ZN6hermes11JSONEmitter8openDictEv(ptr noundef nonnull align 8 dereferenceable(72) %2)
  %json_2 = getelementptr inbounds %"class.hermes::(anonymous namespace)::ESTreeJSONDumper", ptr %this1, i32 0, i32 0
  %3 = load ptr, ptr %json_2, align 8
  store ptr %agg.tmp, ptr %this.addr.i, align 8
  store ptr @.str.246, ptr %Str.addr.i, align 8
  %this1.i = load ptr, ptr %this.addr.i, align 8
  %4 = load ptr, ptr %Str.addr.i, align 8
  store ptr %4, ptr %this1.i, align 8
  %Length.i = getelementptr inbounds %"class.llvh::StringRef", ptr %this1.i, i32 0, i32 1
  %5 = load ptr, ptr %Str.addr.i, align 8
  %tobool.i = icmp ne ptr %5, null
  br i1 %tobool.i, label %cond.true.i, label %cond.false.i

cond.true.i:                                      ; preds = %entry
  %6 = load ptr, ptr %Str.addr.i, align 8
  %call.i = call i64 @strlen(ptr noundef %6) #8
  br label %_ZN4llvh9StringRefC2EPKc.exit

cond.false.i:                                     ; preds = %entry
  br label %_ZN4llvh9StringRefC2EPKc.exit

_ZN4llvh9StringRefC2EPKc.exit:                    ; preds = %cond.false.i, %cond.true.i
  %cond.i = phi i64 [ %call.i, %cond.true.i ], [ 0, %cond.false.i ]
  store i64 %cond.i, ptr %Length.i, align 8
  %7 = getelementptr inbounds { ptr, i64 }, ptr %agg.tmp, i32 0, i32 0
  %8 = load ptr, ptr %7, align 8
  %9 = getelementptr inbounds { ptr, i64 }, ptr %agg.tmp, i32 0, i32 1
  %10 = load i64, ptr %9, align 8
  call void @_ZN6hermes11JSONEmitter12emitKeyValueIN4llvh9StringRefEEEvS3_RKT_(ptr noundef nonnull align 8 dereferenceable(72) %3, ptr %8, i64 %10, ptr noundef nonnull align 8 dereferenceable(16) %type)
  %11 = load ptr, ptr %node.addr, align 8
  call void @_ZN6hermes12_GLOBAL__N_116ESTreeJSONDumper12dumpChildrenEPNS_6ESTree4NodeE(ptr noundef nonnull align 8 dereferenceable(72) %this1, ptr noundef %11)
  %12 = load ptr, ptr %node.addr, align 8
  %call = call { ptr, ptr } @_ZNK6hermes6ESTree4Node14getSourceRangeEv(ptr noundef nonnull align 8 dereferenceable(48) %12)
  %13 = getelementptr inbounds { ptr, ptr }, ptr %sr, i32 0, i32 0
  %14 = extractvalue { ptr, ptr } %call, 0
  store ptr %14, ptr %13, align 8
  %15 = getelementptr inbounds { ptr, ptr }, ptr %sr, i32 0, i32 1
  %16 = extractvalue { ptr, ptr } %call, 1
  store ptr %16, ptr %15, align 8
  %call3 = call noundef zeroext i1 @_ZNK4llvh7SMRange7isValidEv(ptr noundef nonnull align 8 dereferenceable(16) %sr)
  br i1 %call3, label %land.lhs.true, label %if.end

land.lhs.true:                                    ; preds = %_ZN4llvh9StringRefC2EPKc.exit
  %rawProp_ = getelementptr inbounds %"class.hermes::(anonymous namespace)::ESTreeJSONDumper", ptr %this1, i32 0, i32 4
  %17 = load i32, ptr %rawProp_, align 8
  %cmp = icmp eq i32 %17, 1
  br i1 %cmp, label %if.then, label %if.end

if.then:                                          ; preds = %land.lhs.true
  %json_4 = getelementptr inbounds %"class.hermes::(anonymous namespace)::ESTreeJSONDumper", ptr %this1, i32 0, i32 0
  %18 = load ptr, ptr %json_4, align 8
  store ptr %agg.tmp5, ptr %this.addr.i11, align 8
  store ptr @.str.297, ptr %Str.addr.i12, align 8
  %this1.i13 = load ptr, ptr %this.addr.i11, align 8
  %19 = load ptr, ptr %Str.addr.i12, align 8
  store ptr %19, ptr %this1.i13, align 8
  %Length.i14 = getelementptr inbounds %"class.llvh::StringRef", ptr %this1.i13, i32 0, i32 1
  %20 = load ptr, ptr %Str.addr.i12, align 8
  %tobool.i15 = icmp ne ptr %20, null
  br i1 %tobool.i15, label %cond.true.i18, label %cond.false.i16

cond.true.i18:                                    ; preds = %if.then
  %21 = load ptr, ptr %Str.addr.i12, align 8
  %call.i19 = call i64 @strlen(ptr noundef %21) #8
  br label %_ZN4llvh9StringRefC2EPKc.exit20

cond.false.i16:                                   ; preds = %if.then
  br label %_ZN4llvh9StringRefC2EPKc.exit20

_ZN4llvh9StringRefC2EPKc.exit20:                  ; preds = %cond.false.i16, %cond.true.i18
  %cond.i17 = phi i64 [ %call.i19, %cond.true.i18 ], [ 0, %cond.false.i16 ]
  store i64 %cond.i17, ptr %Length.i14, align 8
  %Start = getelementptr inbounds %"class.llvh::SMRange", ptr %sr, i32 0, i32 0
  %call6 = call noundef ptr @_ZNK4llvh5SMLoc10getPointerEv(ptr noundef nonnull align 8 dereferenceable(8) %Start)
  %End = getelementptr inbounds %"class.llvh::SMRange", ptr %sr, i32 0, i32 1
  %call7 = call noundef ptr @_ZNK4llvh5SMLoc10getPointerEv(ptr noundef nonnull align 8 dereferenceable(8) %End)
  %Start8 = getelementptr inbounds %"class.llvh::SMRange", ptr %sr, i32 0, i32 0
  %call9 = call noundef ptr @_ZNK4llvh5SMLoc10getPointerEv(ptr noundef nonnull align 8 dereferenceable(8) %Start8)
  %sub.ptr.lhs.cast = ptrtoint ptr %call7 to i64
  %sub.ptr.rhs.cast = ptrtoint ptr %call9 to i64
  %sub.ptr.sub = sub i64 %sub.ptr.lhs.cast, %sub.ptr.rhs.cast
  store ptr %ref.tmp, ptr %this.addr.i21, align 8
  store ptr %call6, ptr %data.addr.i, align 8
  store i64 %sub.ptr.sub, ptr %length.addr.i, align 8
  %this1.i22 = load ptr, ptr %this.addr.i21, align 8
  %22 = load ptr, ptr %data.addr.i, align 8
  store ptr %22, ptr %this1.i22, align 8
  %Length.i23 = getelementptr inbounds %"class.llvh::StringRef", ptr %this1.i22, i32 0, i32 1
  %23 = load i64, ptr %length.addr.i, align 8
  store i64 %23, ptr %Length.i23, align 8
  %24 = getelementptr inbounds { ptr, i64 }, ptr %agg.tmp5, i32 0, i32 0
  %25 = load ptr, ptr %24, align 8
  %26 = getelementptr inbounds { ptr, i64 }, ptr %agg.tmp5, i32 0, i32 1
  %27 = load i64, ptr %26, align 8
  call void @_ZN6hermes11JSONEmitter12emitKeyValueIN4llvh9StringRefEEEvS3_RKT_(ptr noundef nonnull align 8 dereferenceable(72) %18, ptr %25, i64 %27, ptr noundef nonnull align 8 dereferenceable(16) %ref.tmp)
  br label %if.end

if.end:                                           ; preds = %_ZN4llvh9StringRefC2EPKc.exit20, %land.lhs.true, %_ZN4llvh9StringRefC2EPKc.exit
  %28 = load ptr, ptr %node.addr, align 8
  call void @_ZN6hermes12_GLOBAL__N_116ESTreeJSONDumper19printSourceLocationEPNS_6ESTree4NodeE(ptr noundef nonnull align 8 dereferenceable(72) %this1, ptr noundef %28)
  %json_10 = getelementptr inbounds %"class.hermes::(anonymous namespace)::ESTreeJSONDumper", ptr %this1, i32 0, i32 0
  %29 = load ptr, ptr %json_10, align 8
  call void @_ZN6hermes11JSONEmitter9closeDictEv(ptr noundef nonnull align 8 dereferenceable(72) %29)
  ret void
}