; Function Attrs: mustprogress nounwind uwtable
define internal fastcc void @_ZN6hermes12_GLOBAL__N_116ESTreeJSONDumper5visitEPNS_6ESTree18NumericLiteralNodeEN4llvh9StringRefE(ptr noundef nonnull align 8 dereferenceable(72) %this, ptr noundef %node, i64 %type.coerce1) unnamed_addr #0 align 2 {
entry:
  %0 = load ptr, ptr %this, align 8
  tail call void @_ZN6hermes11JSONEmitter8openDictEv(ptr noundef nonnull align 8 dereferenceable(72) %0) #7
  %1 = load ptr, ptr %this, align 8
  tail call void @_ZN6hermes11JSONEmitter7emitKeyEN4llvh9StringRefE(ptr noundef nonnull align 8 dereferenceable(72) %1, ptr nonnull @.str.246, i64 4) #7
  tail call void @_ZN6hermes11JSONEmitter9emitValueEN4llvh9StringRefE(ptr noundef nonnull align 8 dereferenceable(72) %1, ptr nonnull @.str.54, i64 %type.coerce1) #7
  tail call fastcc void @_ZN6hermes12_GLOBAL__N_116ESTreeJSONDumper12dumpChildrenEPNS_6ESTree4NodeE(ptr noundef nonnull align 8 dereferenceable(72) %this, ptr noundef %node)
  %sourceRange_.i = getelementptr inbounds nuw i8, ptr %node, i64 24
  %retval.sroa.0.0.copyload.i = load ptr, ptr %sourceRange_.i, align 8
  %cmp.i.i = icmp ne ptr %retval.sroa.0.0.copyload.i, null
  %rawProp_ = getelementptr inbounds nuw i8, ptr %this, i64 24
  %2 = load i32, ptr %rawProp_, align 8
  %cmp = icmp eq i32 %2, 1
  %or.cond = select i1 %cmp.i.i, i1 %cmp, i1 false
  br i1 %or.cond, label %if.then, label %if.end

if.then:                                          ; preds = %entry
  %retval.sroa.2.0.sourceRange_.sroa_idx.i = getelementptr inbounds nuw i8, ptr %node, i64 32
  %retval.sroa.2.0.copyload.i = load ptr, ptr %retval.sroa.2.0.sourceRange_.sroa_idx.i, align 8
  %3 = load ptr, ptr %this, align 8
  %sub.ptr.lhs.cast = ptrtoint ptr %retval.sroa.2.0.copyload.i to i64
  %sub.ptr.rhs.cast = ptrtoint ptr %retval.sroa.0.0.copyload.i to i64
  %sub.ptr.sub = sub i64 %sub.ptr.lhs.cast, %sub.ptr.rhs.cast
  tail call void @_ZN6hermes11JSONEmitter7emitKeyEN4llvh9StringRefE(ptr noundef nonnull align 8 dereferenceable(72) %3, ptr nonnull @.str.297, i64 3) #7
  tail call void @_ZN6hermes11JSONEmitter9emitValueEN4llvh9StringRefE(ptr noundef nonnull align 8 dereferenceable(72) %3, ptr nonnull %retval.sroa.0.0.copyload.i, i64 %sub.ptr.sub) #7
  br label %if.end

if.end:                                           ; preds = %if.then, %entry
  tail call fastcc void @_ZN6hermes12_GLOBAL__N_116ESTreeJSONDumper19printSourceLocationEPNS_6ESTree4NodeE(ptr noundef nonnull align 8 dereferenceable(72) %this, ptr noundef nonnull %node)
  %4 = load ptr, ptr %this, align 8
  tail call void @_ZN6hermes11JSONEmitter9closeDictEv(ptr noundef nonnull align 8 dereferenceable(72) %4) #7
  ret void
}